; ModuleID = '14/267.c'
source_filename = "14/267.c"
target datalayout = "e-m:e-p270:32:32-p271:32:32-p272:64:64-i64:64-f80:128-n8:16:32:64-S128"
target triple = "x86_64-pc-linux-gnu"

%struct.student = type { i32, i32, i32 }

@.str = private unnamed_addr constant [3 x i8] c"%d\00", align 1
@.str.1 = private unnamed_addr constant [7 x i8] c"%d%d%d\00", align 1
@.str.2 = private unnamed_addr constant [7 x i8] c"%d %d\0A\00", align 1

; Function Attrs: noinline nounwind uwtable
define dso_local i32 @main() #0 {
  %1 = alloca i32, align 4
  %2 = alloca i32, align 4
  %3 = alloca i32, align 4
  %4 = alloca i32, align 4
  %5 = alloca i32, align 4
  %6 = alloca i32, align 4
  %7 = alloca i8*, align 8
  %8 = alloca i64, align 8
  %9 = alloca i64, align 8
  store i32 0, i32* %1, align 4
  store i32 0, i32* %4, align 4
  store i32 0, i32* %5, align 4
  store i32 0, i32* %6, align 4
  %10 = call i32 (i8*, ...) @__isoc99_scanf(i8* getelementptr inbounds ([3 x i8], [3 x i8]* @.str, i64 0, i64 0), i32* %2)
  %11 = load i32, i32* %2, align 4
  %12 = zext i32 %11 to i64
  %13 = call i8* @llvm.stacksave()
  store i8* %13, i8** %7, align 8
  %14 = alloca %struct.student, i64 %12, align 16
  store i64 %12, i64* %8, align 8
  %15 = load i32, i32* %2, align 4
  %16 = zext i32 %15 to i64
  %17 = alloca i32, i64 %16, align 16
  store i64 %16, i64* %9, align 8
  store i32 0, i32* %3, align 4
  br label %18

18:                                               ; preds = %50, %0
  %19 = load i32, i32* %3, align 4
  %20 = load i32, i32* %2, align 4
  %21 = icmp slt i32 %19, %20
  br i1 %21, label %22, label %53

22:                                               ; preds = %18
  %23 = load i32, i32* %3, align 4
  %24 = sext i32 %23 to i64
  %25 = getelementptr inbounds %struct.student, %struct.student* %14, i64 %24
  %26 = getelementptr inbounds %struct.student, %struct.student* %25, i32 0, i32 0
  %27 = load i32, i32* %3, align 4
  %28 = sext i32 %27 to i64
  %29 = getelementptr inbounds %struct.student, %struct.student* %14, i64 %28
  %30 = getelementptr inbounds %struct.student, %struct.student* %29, i32 0, i32 1
  %31 = load i32, i32* %3, align 4
  %32 = sext i32 %31 to i64
  %33 = getelementptr inbounds %struct.student, %struct.student* %14, i64 %32
  %34 = getelementptr inbounds %struct.student, %struct.student* %33, i32 0, i32 2
  %35 = call i32 (i8*, ...) @__isoc99_scanf(i8* getelementptr inbounds ([7 x i8], [7 x i8]* @.str.1, i64 0, i64 0), i32* %26, i32* %30, i32* %34)
  %36 = load i32, i32* %3, align 4
  %37 = sext i32 %36 to i64
  %38 = getelementptr inbounds %struct.student, %struct.student* %14, i64 %37
  %39 = getelementptr inbounds %struct.student, %struct.student* %38, i32 0, i32 1
  %40 = load i32, i32* %39, align 4
  %41 = load i32, i32* %3, align 4
  %42 = sext i32 %41 to i64
  %43 = getelementptr inbounds %struct.student, %struct.student* %14, i64 %42
  %44 = getelementptr inbounds %struct.student, %struct.student* %43, i32 0, i32 2
  %45 = load i32, i32* %44, align 4
  %46 = add nsw i32 %40, %45
  %47 = load i32, i32* %3, align 4
  %48 = sext i32 %47 to i64
  %49 = getelementptr inbounds i32, i32* %17, i64 %48
  store i32 %46, i32* %49, align 4
  br label %50

50:                                               ; preds = %22
  %51 = load i32, i32* %3, align 4
  %52 = add nsw i32 %51, 1
  store i32 %52, i32* %3, align 4
  br label %18

53:                                               ; preds = %18
  store i32 1, i32* %3, align 4
  br label %54

54:                                               ; preds = %71, %53
  %55 = load i32, i32* %3, align 4
  %56 = load i32, i32* %2, align 4
  %57 = icmp slt i32 %55, %56
  br i1 %57, label %58, label %74

58:                                               ; preds = %54
  %59 = load i32, i32* %4, align 4
  %60 = sext i32 %59 to i64
  %61 = getelementptr inbounds i32, i32* %17, i64 %60
  %62 = load i32, i32* %61, align 4
  %63 = load i32, i32* %3, align 4
  %64 = sext i32 %63 to i64
  %65 = getelementptr inbounds i32, i32* %17, i64 %64
  %66 = load i32, i32* %65, align 4
  %67 = icmp slt i32 %62, %66
  br i1 %67, label %68, label %70

68:                                               ; preds = %58
  %69 = load i32, i32* %3, align 4
  store i32 %69, i32* %4, align 4
  br label %70

70:                                               ; preds = %68, %58
  br label %71

71:                                               ; preds = %70
  %72 = load i32, i32* %3, align 4
  %73 = add nsw i32 %72, 1
  store i32 %73, i32* %3, align 4
  br label %54

74:                                               ; preds = %54
  %75 = load i32, i32* %4, align 4
  %76 = sext i32 %75 to i64
  %77 = getelementptr inbounds %struct.student, %struct.student* %14, i64 %76
  %78 = getelementptr inbounds %struct.student, %struct.student* %77, i32 0, i32 0
  %79 = load i32, i32* %78, align 4
  %80 = load i32, i32* %4, align 4
  %81 = sext i32 %80 to i64
  %82 = getelementptr inbounds i32, i32* %17, i64 %81
  %83 = load i32, i32* %82, align 4
  %84 = call i32 (i8*, ...) @printf(i8* getelementptr inbounds ([7 x i8], [7 x i8]* @.str.2, i64 0, i64 0), i32 %79, i32 %83)
  store i32 1, i32* %3, align 4
  br label %85

85:                                               ; preds = %107, %74
  %86 = load i32, i32* %3, align 4
  %87 = load i32, i32* %2, align 4
  %88 = icmp slt i32 %86, %87
  br i1 %88, label %89, label %110

89:                                               ; preds = %85
  %90 = load i32, i32* %3, align 4
  %91 = load i32, i32* %4, align 4
  %92 = icmp eq i32 %90, %91
  br i1 %92, label %93, label %94

93:                                               ; preds = %89
  br label %107

94:                                               ; preds = %89
  %95 = load i32, i32* %5, align 4
  %96 = sext i32 %95 to i64
  %97 = getelementptr inbounds i32, i32* %17, i64 %96
  %98 = load i32, i32* %97, align 4
  %99 = load i32, i32* %3, align 4
  %100 = sext i32 %99 to i64
  %101 = getelementptr inbounds i32, i32* %17, i64 %100
  %102 = load i32, i32* %101, align 4
  %103 = icmp slt i32 %98, %102
  br i1 %103, label %104, label %106

104:                                              ; preds = %94
  %105 = load i32, i32* %3, align 4
  store i32 %105, i32* %5, align 4
  br label %106

106:                                              ; preds = %104, %94
  br label %107

107:                                              ; preds = %106, %93
  %108 = load i32, i32* %3, align 4
  %109 = add nsw i32 %108, 1
  store i32 %109, i32* %3, align 4
  br label %85

110:                                              ; preds = %85
  %111 = load i32, i32* %5, align 4
  %112 = sext i32 %111 to i64
  %113 = getelementptr inbounds %struct.student, %struct.student* %14, i64 %112
  %114 = getelementptr inbounds %struct.student, %struct.student* %113, i32 0, i32 0
  %115 = load i32, i32* %114, align 4
  %116 = load i32, i32* %5, align 4
  %117 = sext i32 %116 to i64
  %118 = getelementptr inbounds i32, i32* %17, i64 %117
  %119 = load i32, i32* %118, align 4
  %120 = call i32 (i8*, ...) @printf(i8* getelementptr inbounds ([7 x i8], [7 x i8]* @.str.2, i64 0, i64 0), i32 %115, i32 %119)
  store i32 1, i32* %3, align 4
  br label %121

121:                                              ; preds = %148, %110
  %122 = load i32, i32* %3, align 4
  %123 = load i32, i32* %2, align 4
  %124 = icmp slt i32 %122, %123
  br i1 %124, label %125, label %151

125:                                              ; preds = %121
  %126 = load i32, i32* %3, align 4
  %127 = load i32, i32* %4, align 4
  %128 = icmp eq i32 %126, %127
  br i1 %128, label %129, label %130

129:                                              ; preds = %125
  br label %148

130:                                              ; preds = %125
  %131 = load i32, i32* %3, align 4
  %132 = load i32, i32* %5, align 4
  %133 = icmp eq i32 %131, %132
  br i1 %133, label %134, label %135

134:                                              ; preds = %130
  br label %148

135:                                              ; preds = %130
  %136 = load i32, i32* %6, align 4
  %137 = sext i32 %136 to i64
  %138 = getelementptr inbounds i32, i32* %17, i64 %137
  %139 = load i32, i32* %138, align 4
  %140 = load i32, i32* %3, align 4
  %141 = sext i32 %140 to i64
  %142 = getelementptr inbounds i32, i32* %17, i64 %141
  %143 = load i32, i32* %142, align 4
  %144 = icmp slt i32 %139, %143
  br i1 %144, label %145, label %147

145:                                              ; preds = %135
  %146 = load i32, i32* %3, align 4
  store i32 %146, i32* %6, align 4
  br label %147

147:                                              ; preds = %145, %135
  br label %148

148:                                              ; preds = %147, %134, %129
  %149 = load i32, i32* %3, align 4
  %150 = add nsw i32 %149, 1
  store i32 %150, i32* %3, align 4
  br label %121

151:                                              ; preds = %121
  %152 = load i32, i32* %6, align 4
  %153 = sext i32 %152 to i64
  %154 = getelementptr inbounds %struct.student, %struct.student* %14, i64 %153
  %155 = getelementptr inbounds %struct.student, %struct.student* %154, i32 0, i32 0
  %156 = load i32, i32* %155, align 4
  %157 = load i32, i32* %6, align 4
  %158 = sext i32 %157 to i64
  %159 = getelementptr inbounds i32, i32* %17, i64 %158
  %160 = load i32, i32* %159, align 4
  %161 = call i32 (i8*, ...) @printf(i8* getelementptr inbounds ([7 x i8], [7 x i8]* @.str.2, i64 0, i64 0), i32 %156, i32 %160)
  %162 = call i32 @getchar()
  %163 = call i32 @getchar()
  %164 = load i8*, i8** %7, align 8
  call void @llvm.stackrestore(i8* %164)
  %165 = load i32, i32* %1, align 4
  ret i32 %165
}

declare dso_local i32 @__isoc99_scanf(i8*, ...) #1

; Function Attrs: nounwind
declare i8* @llvm.stacksave() #2

declare dso_local i32 @printf(i8*, ...) #1

declare dso_local i32 @getchar() #1

; Function Attrs: nounwind
declare void @llvm.stackrestore(i8*) #2


!llvm.module.flags = !{!0}
!llvm.ident = !{!1}

!0 = !{i32 1, !"wchar_size", i32 4}
!1 = !{!"clang version 10.0.0-4ubuntu1 "}
